target datalayout = "e-m:e-p270:32:32-p271:32:32-p272:64:64-i64:64-i128:128-f80:128-n8:16:32:64-S128"
target triple = "x86_64-pc-linux-gnu"

@stderr = external global ptr, align 8
@.str = private unnamed_addr constant [12 x i8] c"%s (%s:%d)\0A\00", align 1
@.str.1 = private unnamed_addr constant [109 x i8] c"generated/home/dtcxzyw/WorkSpace/Projects/compilers/llvm-opt-benchmark/bench/libzmq/libzmq/src/mechanism.cpp\00", align 1

; Function Attrs: mustprogress uwtable
define void @_ZNK3zmq11mechanism_t34make_command_with_basic_propertiesEPNS_5msg_tEPKcm(ptr noundef nonnull align 8 dereferenceable(1488) %0, ptr noundef %1, ptr noundef %2, i64 noundef %3) #0 align 2 {
  %5 = alloca ptr, align 8
  %6 = alloca ptr, align 8
  %7 = alloca ptr, align 8
  %8 = alloca i64, align 8
  %9 = alloca i64, align 8
  %10 = alloca i32, align 4
  %11 = alloca ptr, align 8
  %12 = alloca ptr, align 8
  store ptr %0, ptr %5, align 8, !tbaa !3
  store ptr %1, ptr %6, align 8, !tbaa !70
  store ptr %2, ptr %7, align 8, !tbaa !67
  store i64 %3, ptr %8, align 8, !tbaa !66
  %13 = load ptr, ptr %5, align 8
  call void @llvm.lifetime.start.p0(i64 8, ptr %9) #18
  %14 = load i64, ptr %8, align 8, !tbaa !66
  %15 = call noundef i64 @_ZNK3zmq11mechanism_t20basic_properties_lenEv(ptr noundef nonnull align 8 dereferenceable(1488) %13)
  %16 = add i64 %14, %15
  store i64 %16, ptr %9, align 8, !tbaa !66
  call void @llvm.lifetime.start.p0(i64 4, ptr %10) #18
  %17 = load ptr, ptr %6, align 8, !tbaa !70
  %18 = load i64, ptr %9, align 8, !tbaa !66
  %19 = call noundef i32 @_ZN3zmq5msg_t9init_sizeEm(ptr noundef nonnull align 8 dereferenceable(64) %17, i64 noundef %18)
  store i32 %19, ptr %10, align 4, !tbaa !72
  br label %20

20:                                               ; preds = %4
  %21 = load i32, ptr %10, align 4, !tbaa !72
  %22 = icmp eq i32 %21, 0
  %23 = xor i1 %22, true
  %24 = zext i1 %23 to i64
  %25 = call i64 @llvm.expect.i64(i64 %24, i64 0)
  %26 = icmp ne i64 %25, 0
  br i1 %26, label %27, label %37

27:                                               ; preds = %20
  call void @llvm.lifetime.start.p0(i64 8, ptr %11) #18
  %28 = call ptr @__errno_location() #21
  %29 = load i32, ptr %28, align 4, !tbaa !72
  %30 = call ptr @strerror(i32 noundef %29) #18
  store ptr %30, ptr %11, align 8, !tbaa !67
  %31 = load ptr, ptr @stderr, align 8, !tbaa !68
  %32 = load ptr, ptr %11, align 8, !tbaa !67
  %33 = call i32 (ptr, ptr, ...) @fprintf(ptr noundef %31, ptr noundef @.str, ptr noundef %32, ptr noundef @.str.1, i32 noundef 198) #18
  %34 = load ptr, ptr @stderr, align 8, !tbaa !68
  %35 = call i32 @fflush(ptr noundef %34)
  %36 = load ptr, ptr %11, align 8, !tbaa !67
  call void @_ZN3zmq9zmq_abortEPKc(ptr noundef %36)
  call void @llvm.lifetime.end.p0(i64 8, ptr %11) #18
  br label %37

37:                                               ; preds = %27, %20
  br label %38

38:                                               ; preds = %37
  br label %39

39:                                               ; preds = %38
  call void @llvm.lifetime.start.p0(i64 8, ptr %12) #18
  %40 = load ptr, ptr %6, align 8, !tbaa !70
  %41 = call noundef ptr @_ZN3zmq5msg_t4dataEv(ptr noundef nonnull align 8 dereferenceable(64) %40)
  store ptr %41, ptr %12, align 8, !tbaa !67
  %42 = load ptr, ptr %12, align 8, !tbaa !67
  %43 = load ptr, ptr %7, align 8, !tbaa !67
  %44 = load i64, ptr %8, align 8, !tbaa !66
  call void @llvm.memcpy.p0.p0.i64(ptr align 1 %42, ptr align 1 %43, i64 %44, i1 false)
  %45 = load i64, ptr %8, align 8, !tbaa !66
  %46 = load ptr, ptr %12, align 8, !tbaa !67
  %47 = getelementptr inbounds nuw i8, ptr %46, i64 %45
  store ptr %47, ptr %12, align 8, !tbaa !67
  %48 = load ptr, ptr %12, align 8, !tbaa !67
  %49 = load i64, ptr %9, align 8, !tbaa !66
  %50 = load ptr, ptr %12, align 8, !tbaa !67
  %51 = load ptr, ptr %6, align 8, !tbaa !70
  %52 = call noundef ptr @_ZN3zmq5msg_t4dataEv(ptr noundef nonnull align 8 dereferenceable(64) %51)
  %53 = ptrtoint ptr %50 to i64
  %54 = ptrtoint ptr %52 to i64
  %55 = sub i64 %53, %54
  %56 = sub i64 %49, %55
  %57 = call noundef i64 @_ZNK3zmq11mechanism_t20add_basic_propertiesEPhm(ptr noundef nonnull align 8 dereferenceable(1488) %13, ptr noundef %48, i64 noundef %56)
  call void @llvm.lifetime.end.p0(i64 8, ptr %12) #18
  call void @llvm.lifetime.end.p0(i64 4, ptr %10) #18
  call void @llvm.lifetime.end.p0(i64 8, ptr %9) #18
  ret void
}