; Function Attrs: mustprogress uwtable
define void @_ZNK3zmq11mechanism_t34make_command_with_basic_propertiesEPNS_5msg_tEPKcm(ptr noundef nonnull align 8 dereferenceable(1488) %0, ptr noundef %1, ptr noundef readonly captures(none) %2, i64 noundef %3) local_unnamed_addr #0 align 2 {
  %5 = tail call noundef i64 @_ZNK3zmq11mechanism_t20basic_properties_lenEv(ptr noundef nonnull align 8 dereferenceable(1488) %0)
  %6 = add i64 %5, %3
  %7 = tail call noundef i32 @_ZN3zmq5msg_t9init_sizeEm(ptr noundef nonnull align 8 dereferenceable(64) %1, i64 noundef %6)
  %.not = icmp eq i32 %7, 0
  br i1 %.not, label %16, label %8, !prof !94

8:                                                ; preds = %4
  %9 = tail call ptr @__errno_location() #34
  %10 = load i32, ptr %9, align 4, !tbaa !40
  %11 = tail call ptr @strerror(i32 noundef %10) #27
  %12 = load ptr, ptr @stderr, align 8, !tbaa !91
  %13 = tail call i32 (ptr, ptr, ...) @fprintf(ptr noundef %12, ptr noundef nonnull @.str, ptr noundef %11, ptr noundef nonnull @.str.1, i32 noundef 198) #33
  %14 = load ptr, ptr @stderr, align 8, !tbaa !91
  %15 = tail call i32 @fflush(ptr noundef %14)
  tail call void @_ZN3zmq9zmq_abortEPKc(ptr noundef %11)
  br label %16

16:                                               ; preds = %8, %4
  %17 = tail call noundef ptr @_ZN3zmq5msg_t4dataEv(ptr noundef nonnull align 8 dereferenceable(64) %1)
  tail call void @llvm.memcpy.p0.p0.i64(ptr align 1 %17, ptr align 1 %2, i64 %3, i1 false)
  %18 = getelementptr inbounds nuw i8, ptr %17, i64 %3
  %19 = tail call noundef ptr @_ZN3zmq5msg_t4dataEv(ptr noundef nonnull align 8 dereferenceable(64) %1)
  %20 = ptrtoint ptr %18 to i64
  %21 = ptrtoint ptr %19 to i64
  %.neg = sub i64 %6, %20
  %22 = add i64 %.neg, %21
  %23 = tail call noundef i64 @_ZNK3zmq11mechanism_t20add_basic_propertiesEPhm(ptr noundef nonnull align 8 dereferenceable(1488) %0, ptr noundef %18, i64 noundef %22)
  ret void
}